
 Start  Stop   Length Name               Class

 00000H 011E8H 011E9H _TEXT              CODE
 011EAH 0144BH 00262H _DATA              DATA
 0144CH 0144CH 00000H _CVTSEG            DATA
 0144CH 0144CH 00000H _SCNSEG            DATA
 0144CH 0148DH 00042H _BSS               BSS
 01490H 01490H 00000H _FARDATA           FAR_DATA
 01490H 01490H 00000H _FARBSS            FAR_BSS
 01490H 01490H 00000H _OVERLAY_          OVRINFO
 01490H 01490H 00000H _1STUB_            STUBSEG
 01490H 01490H 00000H _CONST             CONST
 01490H 01495H 00006H _INIT_             INITDATA
 01496H 01496H 00000H _INITEND_          INITDATA
 01496H 01496H 00000H _EXIT_             EXITDATA
 01496H 01496H 00000H _EXITEND_          EXITDATA
 01496H 01496H 00000H _BSSEND            BSSEND
 014A0H 01C9FH 00800H _STACK             STACK

  Address         Publics by Name

 0000:125F       DATASEG@
 0000:0930       DGROUP@
 0000:1203       _A
 0000:11EA       _AD
 0000:0934       _ATEXIT
 0000:120B       _B
 0000:0B6C       _BRK
 0000:1213       _C
 0000:025C       _CALLTIME
 0000:07FE       _CDISPLAY8
 0000:0861       _CDISPLAY8A
 0000:077C       _CGETBCDKEY
 0000:06D7       _CGETKEY
 0000:076A       _CGETKEYA
 0000:0774       _CGETKEYB
 0000:029B       _CHANGETIME
 0000:07F3       _CINITKEYDISPLAY
 0000:02DD       _DELAY
 0000:0000       _DELAY1
 0000:0041       _DELAY50MS
 0000:0054       _DELAY_025S
 0000:049E       _DISABLE
 0000:062E       _DISPLAY8
 0000:018E       _DOWMTIME
 0000:049C       _ENABLE
 0000:1271       _ERRNO
 0000:09A6       _EXIT
 0000:0DFF       _FFLUSH
 0000:0E7C       _FLUSHALL
 0000:0B88       _FREE
 0000:0F11       _FSEEK
 0000:0F75       _FTELL
 0000:05AC       _GETBCDKEY
 0000:051C       _GETKEY
 0000:059A       _GETKEYA
 0000:05A4       _GETKEYB
 0000:04C7       _GETVECT
 0000:067D       _INIT8279
 0000:001F       _INITISD
 0000:04E6       _INPORTB
 0000:0501       _INPORTW
 0000:0A2C       _ISATTY
 0000:144C       _KEEPMODE
 0000:016C       _KEY_PLAY
 0000:0147       _KEY_REC
 0000:144D       _KKK
 0000:0A3D       _LSEEK
 0000:0432       _MAIN
 0000:0C57       _MALLOC
 0000:04F3       _OUTPORTB
 0000:050E       _OUTPORTW
 0000:0101       _PLAYISD
 0000:0DAE       _REALLOC
 0000:00CF       _RECISD
 0000:0B78       _SBRK
 0000:0FC0       _SETVBUF
 0000:04A0       _SETVECT
 0000:032E       _SHOWTIME
 0000:0073       _STOPISD
 0000:0B03       _TELL
 0000:1000  Abs  __AHINCR
 0000:000C  Abs  __AHSHIFT
 0000:1274       __ATEXITCNT
 0000:144E       __ATEXITTBL
 0000:1267       __BRKLVL
 0000:09C7       __CEXIT
 0000:092C       __CHECKNULL
 0000:092B       __CLEANUP
 0000:09D5       __C_EXIT
 0000:13E6       __DOSERRNO
 0000:0A1A       __DOSERROR
 0000:13E8       __DOSERRORTOSV
 0000:09B5       __EXIT
 0000:1276       __EXITBUF
 0000:1278       __EXITFOPEN
 0000:127A       __EXITOPEN
 0000:1442       __FIRST
 0000:1263       __HEAPBASE
 0000:126B       __HEAPTOP
 0000:09E1       __IOERROR
 0000:1444       __LAST
 0000:0932       __MMODEL
 0000:13BC       __NFILE
 0000:13BE       __OPENFD
 0000:126F       __PSP
 0000:144C       __REALCVTVECTOR
 0000:092F       __RESTOREZERO
 0000:1446       __ROVER
 0000:144C       __SCANTODVECTOR
 0000:0A66       __SETUPIO
 0000:127C       __STREAMS
 0000:092D       __TERMINATE
 0000:118E       __WRITE
 0000:11C8       __XFFLUSH
 0000:0B19       ___BRK
 0000:1261       ___BRKLVL
 0000:125F       ___HEAPBASE
 0000:0B3B       ___SBRK
 0000:108A       ___WRITE

  Address         Publics by Value

 0000:000C  Abs  __AHSHIFT
 0000:1000  Abs  __AHINCR
 0000:0000       _DELAY1
 0000:001F       _INITISD
 0000:0041       _DELAY50MS
 0000:0054       _DELAY_025S
 0000:0073       _STOPISD
 0000:00CF       _RECISD
 0000:0101       _PLAYISD
 0000:0147       _KEY_REC
 0000:016C       _KEY_PLAY
 0000:018E       _DOWMTIME
 0000:025C       _CALLTIME
 0000:029B       _CHANGETIME
 0000:02DD       _DELAY
 0000:032E       _SHOWTIME
 0000:0432       _MAIN
 0000:049C       _ENABLE
 0000:049E       _DISABLE
 0000:04A0       _SETVECT
 0000:04C7       _GETVECT
 0000:04E6       _INPORTB
 0000:04F3       _OUTPORTB
 0000:0501       _INPORTW
 0000:050E       _OUTPORTW
 0000:051C       _GETKEY
 0000:059A       _GETKEYA
 0000:05A4       _GETKEYB
 0000:05AC       _GETBCDKEY
 0000:062E       _DISPLAY8
 0000:067D       _INIT8279
 0000:06D7       _CGETKEY
 0000:076A       _CGETKEYA
 0000:0774       _CGETKEYB
 0000:077C       _CGETBCDKEY
 0000:07F3       _CINITKEYDISPLAY
 0000:07FE       _CDISPLAY8
 0000:0861       _CDISPLAY8A
 0000:092B       __CLEANUP
 0000:092C       __CHECKNULL
 0000:092D       __TERMINATE
 0000:092F       __RESTOREZERO
 0000:0930       DGROUP@
 0000:0932       __MMODEL
 0000:0934       _ATEXIT
 0000:09A6       _EXIT
 0000:09B5       __EXIT
 0000:09C7       __CEXIT
 0000:09D5       __C_EXIT
 0000:09E1       __IOERROR
 0000:0A1A       __DOSERROR
 0000:0A2C       _ISATTY
 0000:0A3D       _LSEEK
 0000:0A66       __SETUPIO
 0000:0B03       _TELL
 0000:0B19       ___BRK
 0000:0B3B       ___SBRK
 0000:0B6C       _BRK
 0000:0B78       _SBRK
 0000:0B88       _FREE
 0000:0C57       _MALLOC
 0000:0DAE       _REALLOC
 0000:0DFF       _FFLUSH
 0000:0E7C       _FLUSHALL
 0000:0F11       _FSEEK
 0000:0F75       _FTELL
 0000:0FC0       _SETVBUF
 0000:108A       ___WRITE
 0000:118E       __WRITE
 0000:11C8       __XFFLUSH
 0000:11EA       _AD
 0000:1203       _A
 0000:120B       _B
 0000:1213       _C
 0000:125F       DATASEG@
 0000:125F       ___HEAPBASE
 0000:1261       ___BRKLVL
 0000:1263       __HEAPBASE
 0000:1267       __BRKLVL
 0000:126B       __HEAPTOP
 0000:126F       __PSP
 0000:1271       _ERRNO
 0000:1274       __ATEXITCNT
 0000:1276       __EXITBUF
 0000:1278       __EXITFOPEN
 0000:127A       __EXITOPEN
 0000:127C       __STREAMS
 0000:13BC       __NFILE
 0000:13BE       __OPENFD
 0000:13E6       __DOSERRNO
 0000:13E8       __DOSERRORTOSV
 0000:1442       __FIRST
 0000:1444       __LAST
 0000:1446       __ROVER
 0000:144C       _KEEPMODE
 0000:144C       __SCANTODVECTOR
 0000:144C       __REALCVTVECTOR
 0000:144D       _KKK
 0000:144E       __ATEXITTBL

Line numbers for zs001.obj(ZS001.C) segment _TEXT

    30 0000:0000    33 0000:000A    36 0000:000D    32 0000:0014
    38 0000:001B    42 0000:001F    43 0000:0022    44 0000:002E
    45 0000:0033    46 0000:003F    48 0000:0041    49 0000:0045
    50 0000:004A    53 0000:0051    55 0000:0054    56 0000:0058
    57 0000:005D    60 0000:0064    61 0000:0069    64 0000:0070
    66 0000:0073    67 0000:0079    68 0000:0081    69 0000:008E
    70 0000:0092    71 0000:009F    72 0000:00A3    73 0000:00B0
    74 0000:00B6    75 0000:00C2    76 0000:00C5    77 0000:00C8
    78 0000:00CB    80 0000:00CF    82 0000:00D5    83 0000:00E2
    84 0000:00EA    85 0000:00F7    86 0000:00FD    88 0000:0101
    90 0000:0107    91 0000:010A    92 0000:0117    93 0000:011F
    94 0000:012C    95 0000:0130    96 0000:013D    97 0000:0143
    99 0000:0147   100 0000:014B   101 0000:014E   103 0000:0158
   102 0000:015B   105 0000:0162   106 0000:0165   107 0000:0169
   109 0000:016C   110 0000:0170   111 0000:0173   113 0000:017D
   112 0000:0180   115 0000:0187   116 0000:018B   118 0000:018E
   120 0000:0194   123 0000:0198   124 0000:01AC   128 0000:01B4
   129 0000:01BA   130 0000:01C0   132 0000:01C2   133 0000:01C8
   134 0000:01D5   135 0000:01DD   140 0000:01E2   142 0000:01EF
   143 0000:020B   144 0000:0213   147 0000:0215   148 0000:021C
   149 0000:0220   150 0000:0222   151 0000:0227   152 0000:022E
   153 0000:0232   154 0000:0234   155 0000:0239   156 0000:0240
   157 0000:0244   158 0000:0246   159 0000:024B   160 0000:0252
   166 0000:0258   169 0000:025C   171 0000:0262   172 0000:0266
   174 0000:026E   175 0000:0274   176 0000:027A   178 0000:027C
   179 0000:028A   180 0000:0292   182 0000:0297   184 0000:029B
   185 0000:029E   186 0000:02AE   187 0000:02B4   188 0000:02C0
   189 0000:02CD   190 0000:02DB   192 0000:02DD   194 0000:02E6
   195 0000:02ED   196 0000:02F3   197 0000:02FA   198 0000:0301
   199 0000:0309   200 0000:030C   201 0000:0315   202 0000:0318
   203 0000:0321   193 0000:0324   207 0000:032B   209 0000:032E
   211 0000:0334   212 0000:033A   213 0000:0342   214 0000:034F
   215 0000:0357   217 0000:036D   218 0000:0371   219 0000:037B
   220 0000:0380   221 0000:0384   222 0000:038B   223 0000:0390
   225 0000:0394   226 0000:03A2   227 0000:03A9   228 0000:03AE
   229 0000:03B2   230 0000:03BB   231 0000:03C2   232 0000:03C7
   236 0000:03CB   237 0000:03D2   239 0000:03D7   240 0000:03E5
   243 0000:0402   244 0000:0426   246 0000:042E   248 0000:0432
   250 0000:0438   252 0000:043C   255 0000:044A   256 0000:0451
   257 0000:0461   254 0000:0464   263 0000:046A   265 0000:046F
Program entry point at 0000:0473

